
myoutput.o:     file format elf32-littlearm


Disassembly of section .text:

00000000 <main>:
   0:	b480      	push	{r7}
   2:	b083      	sub	sp, #12
   4:	af00      	add	r7, sp, #0
   6:	4a1a      	ldr	r2, [pc, #104]	; (70 <main+0x70>)
   8:	4b19      	ldr	r3, [pc, #100]	; (70 <main+0x70>)
   a:	681b      	ldr	r3, [r3, #0]
   c:	f043 0301 	orr.w	r3, r3, #1
  10:	6013      	str	r3, [r2, #0]
  12:	4a17      	ldr	r2, [pc, #92]	; (70 <main+0x70>)
  14:	4b16      	ldr	r3, [pc, #88]	; (70 <main+0x70>)
  16:	681b      	ldr	r3, [r3, #0]
  18:	f043 0304 	orr.w	r3, r3, #4
  1c:	6013      	str	r3, [r2, #0]
  1e:	4a15      	ldr	r2, [pc, #84]	; (74 <main+0x74>)
  20:	4b14      	ldr	r3, [pc, #80]	; (74 <main+0x74>)
  22:	681b      	ldr	r3, [r3, #0]
  24:	f443 6380 	orr.w	r3, r3, #1024	; 0x400
  28:	6013      	str	r3, [r2, #0]
  2a:	4a12      	ldr	r2, [pc, #72]	; (74 <main+0x74>)
  2c:	4b11      	ldr	r3, [pc, #68]	; (74 <main+0x74>)
  2e:	681b      	ldr	r3, [r3, #0]
  30:	f423 6300 	bic.w	r3, r3, #2048	; 0x800
  34:	6013      	str	r3, [r2, #0]
  36:	4a10      	ldr	r2, [pc, #64]	; (78 <main+0x78>)
  38:	4b0f      	ldr	r3, [pc, #60]	; (78 <main+0x78>)
  3a:	681b      	ldr	r3, [r3, #0]
  3c:	f043 6380 	orr.w	r3, r3, #67108864	; 0x4000000
  40:	6013      	str	r3, [r2, #0]
  42:	4a0d      	ldr	r2, [pc, #52]	; (78 <main+0x78>)
  44:	4b0c      	ldr	r3, [pc, #48]	; (78 <main+0x78>)
  46:	681b      	ldr	r3, [r3, #0]
  48:	f023 6300 	bic.w	r3, r3, #134217728	; 0x8000000
  4c:	6013      	str	r3, [r2, #0]
  4e:	4a0b      	ldr	r2, [pc, #44]	; (7c <main+0x7c>)
  50:	4b0a      	ldr	r3, [pc, #40]	; (7c <main+0x7c>)
  52:	681b      	ldr	r3, [r3, #0]
  54:	f483 5300 	eor.w	r3, r3, #8192	; 0x2000
  58:	6013      	str	r3, [r2, #0]
  5a:	2300      	movs	r3, #0
  5c:	607b      	str	r3, [r7, #4]
  5e:	e002      	b.n	66 <main+0x66>
  60:	687b      	ldr	r3, [r7, #4]
  62:	3301      	adds	r3, #1
  64:	607b      	str	r3, [r7, #4]
  66:	687b      	ldr	r3, [r7, #4]
  68:	4a05      	ldr	r2, [pc, #20]	; (80 <main+0x80>)
  6a:	4293      	cmp	r3, r2
  6c:	ddf8      	ble.n	60 <main+0x60>
  6e:	e7ee      	b.n	4e <main+0x4e>
  70:	40023830 	andmi	r3, r2, r0, lsr r8
  74:	40020000 	andmi	r0, r2, r0
  78:	40020800 	andmi	r0, r2, r0, lsl #16
  7c:	40020814 	andmi	r0, r2, r4, lsl r8
  80:	000dbb9f 	muleq	sp, pc, fp	; <UNPREDICTABLE>
